target datalayout = "e-m:e-p270:32:32-p271:32:32-p272:64:64-i64:64-i128:128-f80:128-n8:16:32:64-S128"
target triple = "x86_64-pc-linux-gnu"

; Function Attrs: nounwind uwtable
define ptr @BIO_s_file() #0 {
  ret ptr @methods_filep
}

; Function Attrs: nounwind uwtable
define ptr @BIO_new_fp(ptr noundef %0, i32 noundef %1) #0 {
  %3 = alloca ptr, align 8
  %4 = alloca ptr, align 8
  %5 = alloca i32, align 4
  %6 = alloca ptr, align 8
  %7 = alloca i32, align 4
  store ptr %0, ptr %4, align 8, !tbaa !8
  store i32 %1, ptr %5, align 4, !tbaa !10
  call void @llvm.lifetime.start.p0(i64 8, ptr %6) #6
  %8 = call ptr @BIO_s_file()
  %9 = call ptr @BIO_new(ptr noundef %8)
  store ptr %9, ptr %6, align 8, !tbaa !12
  %10 = icmp eq ptr %9, null
  br i1 %10, label %11, label %12

11:                                               ; preds = %2
  store ptr null, ptr %3, align 8
  store i32 1, ptr %7, align 4
  br label %20

12:                                               ; preds = %2
  %13 = load ptr, ptr %6, align 8, !tbaa !12
  call void @BIO_set_flags(ptr noundef %13, i32 noundef 0)
  %14 = load ptr, ptr %6, align 8, !tbaa !12
  %15 = load i32, ptr %5, align 4, !tbaa !10
  %16 = sext i32 %15 to i64
  %17 = load ptr, ptr %4, align 8, !tbaa !8
  %18 = call i64 @BIO_ctrl(ptr noundef %14, i32 noundef 106, i64 noundef %16, ptr noundef %17)
  %19 = load ptr, ptr %6, align 8, !tbaa !12
  store ptr %19, ptr %3, align 8
  store i32 1, ptr %7, align 4
  br label %20

20:                                               ; preds = %12, %11
  call void @llvm.lifetime.end.p0(i64 8, ptr %6) #6
  %21 = load ptr, ptr %3, align 8
  ret ptr %21
}