; Function Attrs: nounwind uwtable
define ptr @BIO_new_fp(ptr noundef %0, i32 noundef %1) local_unnamed_addr #0 {
  %3 = tail call ptr @BIO_new(ptr noundef nonnull @methods_filep) #10
  %4 = icmp eq ptr %3, null
  br i1 %4, label %8, label %5

5:                                                ; preds = %2
  tail call void @BIO_set_flags(ptr noundef nonnull %3, i32 noundef 0) #10
  %6 = sext i32 %1 to i64
  %7 = tail call i64 @BIO_ctrl(ptr noundef nonnull %3, i32 noundef 106, i64 noundef %6, ptr noundef %0) #10
  br label %8

8:                                                ; preds = %2, %5
  ret ptr %3
}